Certificate:
    Data:
        Version: 3 (0x2)
        Serial Number: 10 (0xa)
        Signature Algorithm: sha256WithRSAEncryption
        Issuer: C=FR, ST=Ile-de-France, L=Paris, O=E36 Knots, CN=Ash Self-signed CA
        Validity
            Not Before: Mar 21 19:33:57 2023 GMT
            Not After : Mar 18 19:33:57 2033 GMT
        Subject: O=E36 Knots, CN=validator05.ash.local
        Subject Public Key Info:
            Public Key Algorithm: rsaEncryption
                Public-Key: (4096 bit)
                Modulus:
                    00:e3:b9:6f:df:53:47:48:06:8f:8c:14:c2:dc:37:
                    35:a9:0d:62:3a:7f:4e:5b:b4:72:04:c0:21:4d:21:
                    e1:0e:9c:c0:41:f0:f4:a0:ec:75:6a:bd:bf:84:48:
                    9d:f9:df:b4:f9:4f:46:1b:66:8e:c5:03:8d:a4:69:
                    84:0e:32:46:b9:bc:2f:16:cd:7b:0e:10:30:31:16:
                    30:9a:78:bf:16:dc:e1:3f:2e:91:42:f1:7b:1a:91:
                    93:a1:5d:aa:8c:c8:4c:e3:15:21:52:89:e1:af:20:
                    b9:ff:33:b5:07:8a:25:ec:2f:74:f2:b8:5d:aa:ae:
                    e2:29:30:ff:fd:64:72:1e:36:08:da:48:8f:30:b5:
                    ca:4b:b6:0a:8f:2c:b0:b0:3b:b3:0a:d5:a9:ae:af:
                    d7:d5:2c:8c:19:59:18:65:f1:34:84:af:79:b1:09:
                    72:98:c2:e4:62:b2:f1:80:73:2d:a2:06:a9:01:79:
                    0f:3a:32:cb:52:43:29:83:68:40:ce:a8:c3:9f:c3:
                    c4:23:7f:06:3f:fb:52:88:c7:9c:03:e8:35:79:fc:
                    f1:08:a4:a5:66:45:cb:e9:34:18:c8:c7:50:90:b4:
                    9e:bc:43:3f:25:18:31:90:59:66:c3:5d:b6:9f:92:
                    2b:21:fb:85:60:63:34:7d:d1:58:06:59:ec:80:00:
                    f7:a0:b4:dd:31:85:aa:a7:0a:1c:39:ed:55:48:88:
                    d7:c9:18:2b:1d:bd:65:e1:c1:1b:d3:d6:ba:fb:36:
                    67:68:b6:e8:53:a4:6a:01:a4:da:f5:f5:b3:22:c7:
                    cd:5d:21:72:4d:4a:fd:4a:b6:30:5f:a6:72:46:1b:
                    ab:ca:99:8e:99:b3:9d:81:4d:a7:fa:28:ee:cc:17:
                    92:88:21:40:89:6a:5a:6a:f1:7c:ba:e6:23:f9:a1:
                    e7:fc:be:c2:43:84:7d:e9:b5:b8:bc:ff:7e:6c:3f:
                    9f:7d:f8:83:be:a0:f2:3e:13:fc:a4:10:ae:d1:c2:
                    1c:c7:a2:f6:87:13:2c:0f:ec:d0:a4:2c:2e:a2:00:
                    0a:91:99:03:e6:85:f3:68:38:67:4e:0d:26:54:2c:
                    e4:dc:02:b4:8b:96:9d:e3:38:e0:99:90:28:9d:46:
                    5b:19:7d:0e:df:d3:ca:c7:f2:05:a5:00:b6:f7:08:
                    df:43:93:c8:1e:ad:5c:7e:9b:6b:55:40:8a:1a:66:
                    06:43:d1:48:50:10:1d:b8:36:15:cf:4d:c6:04:a8:
                    01:f7:69:e3:01:52:9a:87:e1:1b:ec:75:39:00:d1:
                    dd:1f:68:07:40:ae:4f:8d:b5:b5:3a:72:4f:38:21:
                    49:61:bf:4d:f2:8f:b5:70:9c:68:0b:fc:90:d0:a9:
                    be:0f:af
                Exponent: 65537 (0x10001)
        X509v3 extensions:
            X509v3 Key Usage: critical
                Digital Signature, Key Encipherment
            X509v3 Extended Key Usage: 
                TLS Web Server Authentication, TLS Web Client Authentication
            X509v3 Subject Alternative Name: critical
                DNS:localhost, DNS:validator05.ash.local, IP Address:192.168.60.15
            X509v3 Subject Key Identifier: 
                1E:8A:0D:73:39:BA:6F:91:DC:1D:24:80:36:44:4B:C4:A2:96:40:06
            X509v3 Authority Key Identifier: 
                E7:EC:D7:3D:54:22:89:79:71:87:DA:45:E7:7F:5C:9D:4D:3F:A6:12
    Signature Algorithm: sha256WithRSAEncryption
    Signature Value:
        35:e4:d3:35:ab:43:3f:1b:64:f9:29:be:7c:e0:84:77:24:00:
        92:a0:15:4d:98:94:a4:2e:28:02:6d:e2:00:d6:4d:08:22:d9:
        36:70:69:ea:0c:cc:ac:71:89:6b:69:6a:6f:6c:fc:39:a4:12:
        a9:85:96:79:da:31:ac:6e:a9:a4:72:e0:a9:0d:a0:87:e4:ab:
        84:2e:ee:94:b6:36:8a:d6:b8:37:90:f7:dd:91:38:1b:d4:55:
        86:5b:a9:11:51:39:d5:60:ad:f6:fe:9a:a3:1f:a9:34:04:6b:
        f4:aa:1f:f7:41:93:47:7e:56:2d:42:43:5d:ad:69:d1:d2:e1:
        66:a7:f7:4b:03:eb:ee:23:57:2c:b3:54:73:00:70:fa:fe:12:
        5f:1b:2f:c2:33:53:5b:c7:53:d9:57:11:60:f8:f7:19:ac:be:
        bd:0f:76:78:d3:8d:b6:48:fe:4a:fb:89:4a:f1:28:4c:16:10:
        2e:b8:8d:72:15:d5:b3:8a:26:1d:d3:33:4a:01:07:72:ed:b9:
        40:d5:80:b4:6a:6b:cf:31:df:8f:80:87:ac:80:e1:2c:a0:9f:
        ee:78:4b:49:d0:2b:d3:bf:7e:14:91:19:39:a0:60:cd:93:6b:
        f5:6e:a8:34:0e:e8:b6:2c:58:74:a8:26:77:79:60:0d:ef:83:
        98:93:4e:60:48:98:f5:f7:6c:54:f5:be:59:e7:f7:48:6a:cc:
        67:38:0e:0e:d8:3c:c9:ca:4c:5b:ca:47:99:eb:43:54:2e:f4:
        51:8d:58:68:85:f4:3e:4e:09:e1:0f:a0:bf:01:7e:12:f5:21:
        9c:bf:b4:ed:72:c8:11:c6:23:8d:a7:1e:c8:35:3e:8d:44:eb:
        d0:c7:94:17:96:e1:bb:38:05:d0:d4:b1:e5:cc:d7:c6:ff:bf:
        0b:83:ca:16:8f:cb:68:90:c1:6a:47:2e:de:57:b8:6a:dd:cc:
        f4:47:cf:0a:77:28:d3:1a:b0:17:36:6c:da:06:6d:ba:37:05:
        73:45:8c:86:a8:a5:e8:d4:8c:e3:75:e8:0e:fa:98:b3:be:47:
        1d:7f:1f:44:d7:2e:01:29:97:a1:ba:00:ef:b2:7d:9f:ae:dc:
        a1:a6:25:e7:4d:e3:82:2e:47:2a:dd:45:c1:e5:07:ed:16:6e:
        d0:a7:6d:17:a8:6c:fb:3d:5c:88:86:80:9c:cd:4d:a9:54:dc:
        69:e8:87:f6:87:d4:ea:0b:71:9c:39:55:6d:48:60:e5:7d:71:
        e7:da:21:84:51:ed:ea:0a:c8:f2:bd:4c:5e:7f:fa:ff:53:af:
        ac:b6:f6:e6:20:4b:a3:e0:f5:21:5a:90:25:e1:0c:70:3e:24:
        60:b7:b4:bf:e6:12:80:71
-----BEGIN CERTIFICATE-----
MIIFvjCCA6agAwIBAgIBCjANBgkqhkiG9w0BAQsFADBmMQswCQYDVQQGEwJGUjEW
MBQGA1UECAwNSWxlLWRlLUZyYW5jZTEOMAwGA1UEBwwFUGFyaXMxEjAQBgNVBAoM
CUUzNiBLbm90czEbMBkGA1UEAwwSQXNoIFNlbGYtc2lnbmVkIENBMB4XDTIzMDMy
MTE5MzM1N1oXDTMzMDMxODE5MzM1N1owNDESMBAGA1UECgwJRTM2IEtub3RzMR4w
HAYDVQQDDBV2YWxpZGF0b3IwNS5hc2gubG9jYWwwggIiMA0GCSqGSIb3DQEBAQUA
A4ICDwAwggIKAoICAQDjuW/fU0dIBo+MFMLcNzWpDWI6f05btHIEwCFNIeEOnMBB
8PSg7HVqvb+ESJ3537T5T0YbZo7FA42kaYQOMka5vC8WzXsOEDAxFjCaeL8W3OE/
LpFC8XsakZOhXaqMyEzjFSFSieGvILn/M7UHiiXsL3TyuF2qruIpMP/9ZHIeNgja
SI8wtcpLtgqPLLCwO7MK1amur9fVLIwZWRhl8TSEr3mxCXKYwuRisvGAcy2iBqkB
eQ86MstSQymDaEDOqMOfw8QjfwY/+1KIx5wD6DV5/PEIpKVmRcvpNBjIx1CQtJ68
Qz8lGDGQWWbDXbafkish+4VgYzR90VgGWeyAAPegtN0xhaqnChw57VVIiNfJGCsd
vWXhwRvT1rr7NmdotuhTpGoBpNr19bMix81dIXJNSv1KtjBfpnJGG6vKmY6Zs52B
Taf6KO7MF5KIIUCJalpq8Xy65iP5oef8vsJDhH3ptbi8/35sP599+IO+oPI+E/yk
EK7RwhzHovaHEywP7NCkLC6iAAqRmQPmhfNoOGdODSZULOTcArSLlp3jOOCZkCid
RlsZfQ7f08rH8gWlALb3CN9Dk8gerVx+m2tVQIoaZgZD0UhQEB24NhXPTcYEqAH3
aeMBUpqH4RvsdTkA0d0faAdArk+NtbU6ck84IUlhv03yj7VwnGgL/JDQqb4PrwID
AQABo4GoMIGlMA4GA1UdDwEB/wQEAwIFoDAdBgNVHSUEFjAUBggrBgEFBQcDAQYI
KwYBBQUHAwIwNAYDVR0RAQH/BCowKIIJbG9jYWxob3N0ghV2YWxpZGF0b3IwNS5h
c2gubG9jYWyHBMCoPA8wHQYDVR0OBBYEFB6KDXM5um+R3B0kgDZES8SilkAGMB8G
A1UdIwQYMBaAFOfs1z1UIol5cYfaRed/XJ1NP6YSMA0GCSqGSIb3DQEBCwUAA4IC
AQA15NM1q0M/G2T5Kb584IR3JACSoBVNmJSkLigCbeIA1k0IItk2cGnqDMyscYlr
aWpvbPw5pBKphZZ52jGsbqmkcuCpDaCH5KuELu6UtjaK1rg3kPfdkTgb1FWGW6kR
UTnVYK32/pqjH6k0BGv0qh/3QZNHflYtQkNdrWnR0uFmp/dLA+vuI1css1RzAHD6
/hJfGy/CM1Nbx1PZVxFg+PcZrL69D3Z40422SP5K+4lK8ShMFhAuuI1yFdWziiYd
0zNKAQdy7blA1YC0amvPMd+PgIesgOEsoJ/ueEtJ0CvTv34UkRk5oGDNk2v1bqg0
Dui2LFh0qCZ3eWAN74OYk05gSJj192xU9b5Z5/dIasxnOA4O2DzJykxbykeZ60NU
LvRRjVhohfQ+TgnhD6C/AX4S9SGcv7TtcsgRxiONpx7INT6NROvQx5QXluG7OAXQ
1LHlzNfG/78Lg8oWj8tokMFqRy7eV7hq3cz0R88KdyjTGrAXNmzaBm26NwVzRYyG
qKXo1IzjdegO+pizvkcdfx9E1y4BKZehugDvsn2frtyhpiXnTeOCLkcq3UXB5Qft
Fm7Qp20XqGz7PVyIhoCczU2pVNxp6If2h9TqC3GcOVVtSGDlfXHn2iGEUe3qCsjy
vUxef/r/U6+stvbmIEuj4PUhWpAl4QxwPiRgt7S/5hKAcQ==
-----END CERTIFICATE-----
