Certificate:
    Data:
        Version: 3 (0x2)
        Serial Number: 6 (0x6)
        Signature Algorithm: sha256WithRSAEncryption
        Issuer: C=FR, ST=Ile-de-France, L=Paris, O=E36 Knots, CN=Ash Self-signed CA
        Validity
            Not Before: Mar 21 19:33:53 2023 GMT
            Not After : Mar 18 19:33:53 2033 GMT
        Subject: O=E36 Knots, CN=validator01.ash.local
        Subject Public Key Info:
            Public Key Algorithm: rsaEncryption
                Public-Key: (4096 bit)
                Modulus:
                    00:df:2a:91:a6:b5:15:29:74:91:67:bf:b0:c0:6a:
                    1a:b5:dc:21:6a:0d:a7:02:59:07:3b:37:35:d7:68:
                    b9:27:be:e6:8f:02:fd:45:f6:a8:b8:6b:6c:eb:2b:
                    82:0e:76:25:03:a6:8e:06:30:4c:44:5d:b6:c2:3a:
                    c3:0b:fd:9c:09:8e:74:09:ce:f2:c4:1f:09:d4:48:
                    78:3f:2d:a0:38:c7:33:f7:74:32:f6:02:3b:32:57:
                    26:1a:af:2e:50:c8:64:a6:a2:f8:9a:89:c5:3e:ba:
                    d7:c0:cc:db:c4:71:5f:d4:c3:4b:30:4a:e0:5c:81:
                    3c:3f:9d:31:9e:a6:d5:c3:2c:3a:cb:e1:68:1a:b1:
                    52:43:90:dc:d1:12:cf:ad:0b:51:b2:d3:62:b8:9d:
                    6b:55:a8:df:f2:e1:e0:c6:1c:39:0c:3a:7d:88:f1:
                    8b:b4:e5:7b:ec:db:90:0a:ab:1b:3e:4a:1b:6f:cb:
                    cd:23:6a:60:56:c2:4e:08:52:1b:6a:09:8b:cc:11:
                    b8:c6:e4:3e:09:7b:08:cb:87:52:56:9d:37:20:6d:
                    98:2e:7a:c3:c2:75:4d:2c:33:01:d6:27:c9:97:de:
                    d0:f4:fa:5e:4e:54:5d:b2:b6:38:a9:a3:b3:cc:11:
                    41:33:ff:41:5b:49:f3:16:44:16:b4:cc:d5:e5:90:
                    c1:96:ad:97:1f:51:3a:b3:4e:88:f6:2a:d9:4b:f9:
                    aa:43:fd:7d:21:69:e5:30:c7:48:dc:66:61:47:14:
                    a9:4f:ba:65:4e:59:b6:62:85:fb:66:38:af:3f:e0:
                    5a:b2:62:2b:4a:e4:0c:69:f8:8b:eb:a9:20:77:42:
                    31:8e:b4:66:aa:3a:28:99:ac:47:ff:00:e6:40:46:
                    e4:7f:b4:20:ee:b5:be:16:61:11:92:4c:2b:e4:43:
                    f8:b4:ea:c4:23:d7:0a:2b:13:35:79:fc:42:8c:92:
                    8f:dc:2d:58:4c:7e:0d:49:03:57:fd:3c:9a:49:73:
                    19:7f:a5:87:7e:bf:90:49:f9:f9:01:14:5b:9e:8f:
                    72:d2:62:62:0d:e0:45:19:c7:8c:68:90:f3:06:2e:
                    ff:11:97:4e:be:56:a4:6f:15:20:32:da:92:c7:99:
                    af:92:44:51:3a:1a:e5:a2:c5:11:a5:22:67:13:51:
                    e6:b2:54:83:bb:b5:13:17:37:2d:c7:2c:7b:df:95:
                    15:a6:65:f6:a3:4f:ef:3c:61:cb:32:47:9b:88:26:
                    90:e4:be:a1:f0:9c:cd:c7:c0:54:a2:d2:0a:7f:49:
                    8d:86:67:ae:13:9a:fa:27:80:e4:1f:42:01:96:ee:
                    a4:15:25:55:b7:dd:e4:90:72:f9:e2:de:1e:0a:b4:
                    99:66:37
                Exponent: 65537 (0x10001)
        X509v3 extensions:
            X509v3 Key Usage: critical
                Digital Signature, Key Encipherment
            X509v3 Extended Key Usage: 
                TLS Web Server Authentication, TLS Web Client Authentication
            X509v3 Subject Alternative Name: critical
                DNS:localhost, DNS:validator01.ash.local, IP Address:192.168.60.11
            X509v3 Subject Key Identifier: 
                88:9F:FF:B4:59:86:59:80:BB:BC:C4:11:7B:2D:C9:A8:7C:B8:06:FC
            X509v3 Authority Key Identifier: 
                E7:EC:D7:3D:54:22:89:79:71:87:DA:45:E7:7F:5C:9D:4D:3F:A6:12
    Signature Algorithm: sha256WithRSAEncryption
    Signature Value:
        3a:6e:8a:b4:2d:d8:4a:3f:fd:a0:ad:65:37:9f:b2:26:e6:69:
        2a:8d:2c:71:08:eb:7f:81:60:9c:bb:d5:5b:fe:26:28:e7:fa:
        0d:f7:46:f5:78:52:9c:3e:c5:39:27:fd:eb:d1:23:0d:7e:ac:
        01:0d:a7:b7:37:d9:ab:94:43:18:97:d2:f6:07:d9:36:c4:88:
        43:10:50:5f:3d:38:13:9d:25:ed:a3:f3:43:79:e7:18:09:43:
        10:9d:17:5b:d6:3f:8a:81:3e:8b:9d:bb:81:64:13:ab:84:44:
        74:00:51:5f:81:3a:29:cf:53:3a:19:95:a7:9c:f9:6c:09:e6:
        ed:73:23:80:7e:8f:1f:6a:04:d2:5b:f1:dc:c0:87:68:90:83:
        06:8e:61:0f:06:fb:04:31:1f:22:1b:79:03:7e:70:be:3c:29:
        d5:68:8f:e7:94:de:f7:f4:06:1a:0f:34:6e:dc:39:85:67:1a:
        02:05:55:df:2d:e3:ac:50:27:22:9d:c4:05:0c:1b:12:70:90:
        c3:42:54:02:53:71:07:eb:f9:00:14:52:05:9c:30:86:61:7d:
        76:f6:cb:42:a1:70:52:26:2a:ba:9e:ce:b7:be:75:1e:ba:2b:
        23:90:82:35:40:7f:d7:87:74:9d:34:75:d4:49:18:88:c4:60:
        90:61:33:c0:a7:ba:59:41:1a:94:be:b0:18:c3:27:01:4d:4d:
        ff:bf:dd:f4:2f:15:7f:5b:5c:e6:d8:a6:1c:bd:c2:c5:d2:59:
        75:81:f6:bd:ac:1b:0c:fe:23:d3:34:68:a8:4e:f6:c8:f2:a8:
        20:53:78:84:c1:56:e7:f4:d2:7b:4b:d5:f0:3f:ad:dc:b0:a7:
        d9:6b:37:84:b6:fe:52:89:0a:3b:15:9f:e8:88:fd:c5:19:94:
        d5:99:9e:1d:69:5c:ba:5d:db:f2:e1:5d:e9:b9:b1:c4:13:28:
        34:d9:d4:00:2f:87:41:e9:49:7a:74:cf:3f:4d:05:38:81:a0:
        38:85:08:09:e4:26:63:dc:24:10:88:cc:9c:bb:c2:43:ce:da:
        e0:f5:2d:81:35:b8:3f:13:45:65:30:8d:cc:14:31:d5:c9:92:
        3e:07:2e:e9:62:a5:4e:8e:b3:eb:2c:c3:b5:14:b8:5a:b8:c8:
        f1:2c:79:70:13:65:26:fa:94:f0:51:b7:ce:a3:b7:07:27:33:
        f4:b6:4d:6b:ad:ba:6e:0d:29:92:b7:dd:f1:db:56:16:2d:f3:
        46:ad:ab:0b:e1:f9:96:08:58:55:2d:a5:5e:bb:c5:87:22:99:
        1a:96:5c:5c:c6:a7:6e:57:5a:d0:5c:3d:9f:c2:37:e1:ca:06:
        0b:9e:fa:a2:96:30:79:81
-----BEGIN CERTIFICATE-----
MIIFvjCCA6agAwIBAgIBBjANBgkqhkiG9w0BAQsFADBmMQswCQYDVQQGEwJGUjEW
MBQGA1UECAwNSWxlLWRlLUZyYW5jZTEOMAwGA1UEBwwFUGFyaXMxEjAQBgNVBAoM
CUUzNiBLbm90czEbMBkGA1UEAwwSQXNoIFNlbGYtc2lnbmVkIENBMB4XDTIzMDMy
MTE5MzM1M1oXDTMzMDMxODE5MzM1M1owNDESMBAGA1UECgwJRTM2IEtub3RzMR4w
HAYDVQQDDBV2YWxpZGF0b3IwMS5hc2gubG9jYWwwggIiMA0GCSqGSIb3DQEBAQUA
A4ICDwAwggIKAoICAQDfKpGmtRUpdJFnv7DAahq13CFqDacCWQc7NzXXaLknvuaP
Av1F9qi4a2zrK4IOdiUDpo4GMExEXbbCOsML/ZwJjnQJzvLEHwnUSHg/LaA4xzP3
dDL2AjsyVyYary5QyGSmoviaicU+utfAzNvEcV/Uw0swSuBcgTw/nTGeptXDLDrL
4WgasVJDkNzREs+tC1Gy02K4nWtVqN/y4eDGHDkMOn2I8Yu05Xvs25AKqxs+Shtv
y80jamBWwk4IUhtqCYvMEbjG5D4JewjLh1JWnTcgbZguesPCdU0sMwHWJ8mX3tD0
+l5OVF2ytjipo7PMEUEz/0FbSfMWRBa0zNXlkMGWrZcfUTqzToj2KtlL+apD/X0h
aeUwx0jcZmFHFKlPumVOWbZihftmOK8/4FqyYitK5Axp+IvrqSB3QjGOtGaqOiiZ
rEf/AOZARuR/tCDutb4WYRGSTCvkQ/i06sQj1worEzV5/EKMko/cLVhMfg1JA1f9
PJpJcxl/pYd+v5BJ+fkBFFuej3LSYmIN4EUZx4xokPMGLv8Rl06+VqRvFSAy2pLH
ma+SRFE6GuWixRGlImcTUeayVIO7tRMXNy3HLHvflRWmZfajT+88YcsyR5uIJpDk
vqHwnM3HwFSi0gp/SY2GZ64TmvongOQfQgGW7qQVJVW33eSQcvni3h4KtJlmNwID
AQABo4GoMIGlMA4GA1UdDwEB/wQEAwIFoDAdBgNVHSUEFjAUBggrBgEFBQcDAQYI
KwYBBQUHAwIwNAYDVR0RAQH/BCowKIIJbG9jYWxob3N0ghV2YWxpZGF0b3IwMS5h
c2gubG9jYWyHBMCoPAswHQYDVR0OBBYEFIif/7RZhlmAu7zEEXstyah8uAb8MB8G
A1UdIwQYMBaAFOfs1z1UIol5cYfaRed/XJ1NP6YSMA0GCSqGSIb3DQEBCwUAA4IC
AQA6boq0LdhKP/2grWU3n7Im5mkqjSxxCOt/gWCcu9Vb/iYo5/oN90b1eFKcPsU5
J/3r0SMNfqwBDae3N9mrlEMYl9L2B9k2xIhDEFBfPTgTnSXto/NDeecYCUMQnRdb
1j+KgT6LnbuBZBOrhER0AFFfgTopz1M6GZWnnPlsCebtcyOAfo8fagTSW/HcwIdo
kIMGjmEPBvsEMR8iG3kDfnC+PCnVaI/nlN739AYaDzRu3DmFZxoCBVXfLeOsUCci
ncQFDBsScJDDQlQCU3EH6/kAFFIFnDCGYX129stCoXBSJiq6ns63vnUeuisjkII1
QH/Xh3SdNHXUSRiIxGCQYTPAp7pZQRqUvrAYwycBTU3/v930LxV/W1zm2KYcvcLF
0ll1gfa9rBsM/iPTNGioTvbI8qggU3iEwVbn9NJ7S9XwP63csKfZazeEtv5SiQo7
FZ/oiP3FGZTVmZ4daVy6Xdvy4V3pubHEEyg02dQAL4dB6Ul6dM8/TQU4gaA4hQgJ
5CZj3CQQiMycu8JDztrg9S2BNbg/E0VlMI3MFDHVyZI+By7pYqVOjrPrLMO1FLha
uMjxLHlwE2Um+pTwUbfOo7cHJzP0tk1rrbpuDSmSt93x21YWLfNGrasL4fmWCFhV
LaVeu8WHIpkallxcxqduV1rQXD2fwjfhygYLnvqiljB5gQ==
-----END CERTIFICATE-----
