Certificate:
    Data:
        Version: 3 (0x2)
        Serial Number: 7 (0x7)
        Signature Algorithm: sha256WithRSAEncryption
        Issuer: C=FR, ST=Ile-de-France, L=Paris, O=E36 Knots, CN=Ash Self-signed CA
        Validity
            Not Before: Mar 21 19:33:54 2023 GMT
            Not After : Mar 18 19:33:54 2033 GMT
        Subject: O=E36 Knots, CN=validator02.ash.local
        Subject Public Key Info:
            Public Key Algorithm: rsaEncryption
                Public-Key: (4096 bit)
                Modulus:
                    00:d1:9c:5e:f0:19:37:10:4f:f3:f9:f6:aa:08:9d:
                    68:ee:36:84:f1:1e:61:60:45:55:ed:14:4f:2a:07:
                    c3:8a:09:8c:77:2b:35:c6:e0:bc:15:23:fe:33:8f:
                    81:b4:fd:ff:de:f9:04:c9:64:16:68:cd:76:c8:f1:
                    6e:3d:d2:e3:f4:79:bf:ec:fe:e6:8c:12:ed:00:a3:
                    e8:a6:71:5b:b9:3e:51:cd:df:e0:55:83:48:ba:c9:
                    78:42:80:a4:24:5d:e0:08:57:a6:bf:10:c2:3c:f1:
                    66:1e:c4:49:77:e6:90:d5:8e:a3:8f:e9:5a:0e:df:
                    d7:8c:10:af:8c:ef:72:f3:d5:1a:77:fb:4c:ed:31:
                    0d:69:fd:47:66:ef:77:8c:a4:d7:bb:a3:f1:b3:7a:
                    32:4c:66:42:3f:1f:b8:e8:bc:4a:2f:e2:a5:36:a0:
                    04:cc:df:49:23:23:4d:b8:61:91:a2:0a:89:0b:87:
                    6e:2d:e2:30:1a:b0:fa:96:a2:3d:a3:6b:c7:71:d9:
                    61:25:59:fc:dc:cd:ff:83:ee:55:75:13:cb:3c:59:
                    8a:a7:21:04:c7:4c:ec:08:b2:24:d1:cf:8c:16:6e:
                    34:39:02:f2:64:94:6d:d3:09:93:e1:02:49:7e:a4:
                    cf:d2:bc:b0:74:05:3c:66:90:3c:32:16:1c:db:26:
                    47:bf:a6:66:e1:ca:f4:8d:21:42:e7:54:01:2f:18:
                    df:0b:de:86:26:84:9f:a1:65:40:51:25:74:8e:14:
                    83:ea:80:d6:3b:05:8e:9a:18:21:ab:e0:91:bb:e2:
                    6f:7b:0a:de:34:49:f2:19:dd:75:2f:78:6d:c6:99:
                    46:4b:13:2b:79:4a:ae:05:8d:7f:70:70:85:e4:da:
                    a0:18:a1:d1:61:97:b2:e8:44:ed:00:86:70:e7:ce:
                    c2:30:80:86:22:c1:39:06:e2:d5:99:be:44:7f:c2:
                    fc:70:9f:9c:3e:b1:c2:dc:12:bc:23:43:d7:15:6f:
                    68:65:db:13:c2:8f:5d:54:70:a9:24:48:96:a5:17:
                    e1:3b:f2:7a:d4:4f:44:19:64:ee:bf:b8:35:0f:a6:
                    53:f3:e4:f4:a9:61:08:de:a9:5e:20:a9:bb:58:5f:
                    1f:e5:a7:d6:04:c8:60:29:2d:c5:c6:d6:4f:57:42:
                    7b:fe:da:d3:ec:c1:da:b0:d8:e8:7b:3c:2f:df:4b:
                    d9:c5:32:9f:5c:9d:61:57:30:e1:4e:80:e3:fa:51:
                    5a:80:61:0f:ad:5a:20:a6:47:98:59:a0:83:d3:23:
                    64:f7:c5:5c:83:93:c2:cf:cb:00:f1:52:00:99:1f:
                    f6:0d:30:51:6f:7e:81:51:03:9a:05:62:a2:be:7d:
                    45:29:ad
                Exponent: 65537 (0x10001)
        X509v3 extensions:
            X509v3 Key Usage: critical
                Digital Signature, Key Encipherment
            X509v3 Extended Key Usage: 
                TLS Web Server Authentication, TLS Web Client Authentication
            X509v3 Subject Alternative Name: critical
                DNS:localhost, DNS:validator02.ash.local, IP Address:192.168.60.12
            X509v3 Subject Key Identifier: 
                5A:FD:96:16:31:3F:B8:24:59:EB:68:D6:08:5B:4D:B6:A3:61:B0:DE
            X509v3 Authority Key Identifier: 
                E7:EC:D7:3D:54:22:89:79:71:87:DA:45:E7:7F:5C:9D:4D:3F:A6:12
    Signature Algorithm: sha256WithRSAEncryption
    Signature Value:
        72:da:1f:9a:3e:a4:77:a8:e7:23:f3:94:dc:b6:45:ac:a1:65:
        a9:d7:f9:b1:a2:05:1b:79:d7:50:91:d8:f9:df:73:1c:ff:e9:
        ac:7c:1b:9a:1a:ac:41:0a:1a:06:03:94:f9:d4:d4:63:c1:25:
        7b:dc:6b:59:6f:18:f7:84:4d:92:8b:51:9f:b5:f9:b2:2c:72:
        e3:0c:2b:50:95:6c:2e:fc:3a:56:52:2a:2a:05:2d:4b:d8:2e:
        26:a8:a6:2e:9b:50:15:d6:33:ea:4f:df:d4:42:43:6e:4a:38:
        81:6c:7d:46:b2:89:c2:cb:a7:2b:98:31:a6:28:8b:5a:7d:24:
        94:96:a4:76:80:8b:2f:b6:61:54:b7:9a:d8:c8:e2:05:b5:b0:
        e8:5e:fe:0f:9f:26:57:a8:eb:30:33:f4:1d:7c:de:ef:71:f6:
        ca:94:6b:ba:eb:0c:16:18:4e:9b:32:af:0c:8d:70:2c:b4:4c:
        c1:b2:3d:f2:93:ee:dc:0a:e3:86:b4:db:fd:17:c0:b7:d7:a0:
        76:52:72:cd:6b:c0:ee:70:e4:83:29:3e:ac:ee:07:c1:3f:ab:
        20:56:e8:5d:23:37:70:4f:85:34:fb:4f:db:0f:b3:e7:89:9b:
        36:71:83:41:aa:96:3b:44:0b:7d:aa:3b:81:c9:5a:65:49:0e:
        43:0f:19:0c:53:54:10:dc:8d:43:d6:d8:5e:64:f1:53:e2:0e:
        e2:f4:3a:d2:5e:db:13:bb:c0:5b:b4:4d:d6:54:80:3a:8a:c4:
        03:6a:51:fa:6b:b8:e8:3a:ef:d8:9e:a0:b2:27:af:dc:c2:5d:
        10:c8:8b:d0:8e:3f:9f:65:f8:ce:6f:5b:27:a4:58:b5:5f:43:
        c8:60:b1:d0:60:04:92:2f:59:ff:15:09:eb:dd:c5:6e:9d:f9:
        ef:f3:93:49:e4:96:bb:80:02:94:a4:db:42:b1:8f:d7:a4:d7:
        e2:37:a8:a5:91:1c:6c:ce:20:07:19:8c:f1:69:01:05:59:c9:
        b2:56:b0:40:21:74:57:70:cc:c6:d3:74:c5:bc:ee:3f:f1:b2:
        fb:fb:25:90:58:24:e9:e0:25:6c:f8:80:ef:7f:70:0c:04:ca:
        79:4a:6f:ac:e0:06:2b:a9:a0:bc:63:69:41:7e:10:07:d3:57:
        86:c2:d0:c6:83:82:b3:fd:c6:b8:81:d6:c5:da:ca:3b:c2:4a:
        15:12:99:b7:bf:39:ed:8c:35:c0:1e:e4:39:59:56:d0:78:e9:
        59:df:f6:6d:9a:32:f9:2d:bd:c2:79:ac:e2:47:6f:0b:65:84:
        a9:2e:f5:42:f5:61:02:4a:ae:6a:f3:45:c2:0e:70:ec:de:b6:
        6c:f4:31:8a:d1:64:b5:cd
-----BEGIN CERTIFICATE-----
MIIFvjCCA6agAwIBAgIBBzANBgkqhkiG9w0BAQsFADBmMQswCQYDVQQGEwJGUjEW
MBQGA1UECAwNSWxlLWRlLUZyYW5jZTEOMAwGA1UEBwwFUGFyaXMxEjAQBgNVBAoM
CUUzNiBLbm90czEbMBkGA1UEAwwSQXNoIFNlbGYtc2lnbmVkIENBMB4XDTIzMDMy
MTE5MzM1NFoXDTMzMDMxODE5MzM1NFowNDESMBAGA1UECgwJRTM2IEtub3RzMR4w
HAYDVQQDDBV2YWxpZGF0b3IwMi5hc2gubG9jYWwwggIiMA0GCSqGSIb3DQEBAQUA
A4ICDwAwggIKAoICAQDRnF7wGTcQT/P59qoInWjuNoTxHmFgRVXtFE8qB8OKCYx3
KzXG4LwVI/4zj4G0/f/e+QTJZBZozXbI8W490uP0eb/s/uaMEu0Ao+imcVu5PlHN
3+BVg0i6yXhCgKQkXeAIV6a/EMI88WYexEl35pDVjqOP6VoO39eMEK+M73Lz1Rp3
+0ztMQ1p/Udm73eMpNe7o/GzejJMZkI/H7jovEov4qU2oATM30kjI024YZGiCokL
h24t4jAasPqWoj2ja8dx2WElWfzczf+D7lV1E8s8WYqnIQTHTOwIsiTRz4wWbjQ5
AvJklG3TCZPhAkl+pM/SvLB0BTxmkDwyFhzbJke/pmbhyvSNIULnVAEvGN8L3oYm
hJ+hZUBRJXSOFIPqgNY7BY6aGCGr4JG74m97Ct40SfIZ3XUveG3GmUZLEyt5Sq4F
jX9wcIXk2qAYodFhl7LoRO0AhnDnzsIwgIYiwTkG4tWZvkR/wvxwn5w+scLcErwj
Q9cVb2hl2xPCj11UcKkkSJalF+E78nrUT0QZZO6/uDUPplPz5PSpYQjeqV4gqbtY
Xx/lp9YEyGApLcXG1k9XQnv+2tPswdqw2Oh7PC/fS9nFMp9cnWFXMOFOgOP6UVqA
YQ+tWiCmR5hZoIPTI2T3xVyDk8LPywDxUgCZH/YNMFFvfoFRA5oFYqK+fUUprQID
AQABo4GoMIGlMA4GA1UdDwEB/wQEAwIFoDAdBgNVHSUEFjAUBggrBgEFBQcDAQYI
KwYBBQUHAwIwNAYDVR0RAQH/BCowKIIJbG9jYWxob3N0ghV2YWxpZGF0b3IwMi5h
c2gubG9jYWyHBMCoPAwwHQYDVR0OBBYEFFr9lhYxP7gkWeto1ghbTbajYbDeMB8G
A1UdIwQYMBaAFOfs1z1UIol5cYfaRed/XJ1NP6YSMA0GCSqGSIb3DQEBCwUAA4IC
AQBy2h+aPqR3qOcj85TctkWsoWWp1/mxogUbeddQkdj533Mc/+msfBuaGqxBChoG
A5T51NRjwSV73GtZbxj3hE2Si1GftfmyLHLjDCtQlWwu/DpWUioqBS1L2C4mqKYu
m1AV1jPqT9/UQkNuSjiBbH1GsonCy6crmDGmKItafSSUlqR2gIsvtmFUt5rYyOIF
tbDoXv4PnyZXqOswM/QdfN7vcfbKlGu66wwWGE6bMq8MjXAstEzBsj3yk+7cCuOG
tNv9F8C316B2UnLNa8DucOSDKT6s7gfBP6sgVuhdIzdwT4U0+0/bD7PniZs2cYNB
qpY7RAt9qjuByVplSQ5DDxkMU1QQ3I1D1theZPFT4g7i9DrSXtsTu8BbtE3WVIA6
isQDalH6a7joOu/YnqCyJ6/cwl0QyIvQjj+fZfjOb1snpFi1X0PIYLHQYASSL1n/
FQnr3cVunfnv85NJ5Ja7gAKUpNtCsY/XpNfiN6ilkRxsziAHGYzxaQEFWcmyVrBA
IXRXcMzG03TFvO4/8bL7+yWQWCTp4CVs+IDvf3AMBMp5Sm+s4AYrqaC8Y2lBfhAH
01eGwtDGg4Kz/ca4gdbF2so7wkoVEpm3vzntjDXAHuQ5WVbQeOlZ3/ZtmjL5Lb3C
eaziR28LZYSpLvVC9WECSq5q80XCDnDs3rZs9DGK0WS1zQ==
-----END CERTIFICATE-----
