Certificate:
    Data:
        Version: 3 (0x2)
        Serial Number: 8 (0x8)
        Signature Algorithm: sha256WithRSAEncryption
        Issuer: C=FR, ST=Ile-de-France, L=Paris, O=E36 Knots, CN=Ash Self-signed CA
        Validity
            Not Before: Mar 21 19:33:55 2023 GMT
            Not After : Mar 18 19:33:55 2033 GMT
        Subject: O=E36 Knots, CN=validator03.ash.local
        Subject Public Key Info:
            Public Key Algorithm: rsaEncryption
                Public-Key: (4096 bit)
                Modulus:
                    00:b6:8f:ad:8d:ec:ec:04:37:13:f4:d3:55:86:6d:
                    2c:77:ca:6e:65:13:93:27:90:6a:64:59:03:d5:cc:
                    88:ed:ab:a2:40:fd:32:27:06:fb:ae:bf:31:cd:da:
                    8f:70:e8:51:85:65:75:1c:45:f5:7f:e4:1d:65:df:
                    ab:0a:00:be:76:c2:06:67:39:97:41:55:4f:c9:b9:
                    af:40:d9:b9:a9:39:cb:32:d5:86:9d:da:84:7c:20:
                    2a:49:bc:d9:7d:3d:bd:64:75:74:5e:73:47:44:f7:
                    30:67:de:db:03:45:82:df:34:b1:47:ce:74:c4:eb:
                    83:92:db:6e:a4:03:f5:0f:f0:ba:64:c4:7e:6c:de:
                    9d:48:76:23:e6:b4:8c:e5:ef:8c:af:22:60:22:28:
                    5b:e7:d0:cc:52:e1:ed:13:6b:00:56:32:f5:03:d0:
                    58:54:49:6d:54:14:cb:07:95:97:d4:96:3c:74:3d:
                    b0:dd:47:d0:aa:91:77:18:47:06:e3:08:28:84:bb:
                    30:cc:ae:2c:b9:e1:ce:28:74:2d:a9:c5:9c:a7:5c:
                    6b:8f:f4:43:c6:4a:d8:38:15:88:fe:b6:1a:ec:fe:
                    e3:b8:ba:06:d3:40:65:3d:e7:e4:e9:85:05:5f:39:
                    b3:b3:5f:2c:62:47:c6:af:ea:84:f0:43:53:c3:51:
                    c1:92:75:0f:ec:f5:61:36:e1:25:9c:59:0a:79:d7:
                    c8:1c:a1:a8:7d:be:b6:24:67:71:51:10:c5:a6:72:
                    ae:98:80:9b:7d:f7:77:d9:cf:fc:af:58:6c:17:0e:
                    71:9b:df:4d:43:b0:32:57:7d:de:54:2c:c9:45:1a:
                    13:99:72:43:08:cb:6c:34:1a:bb:19:94:42:1e:f5:
                    43:e5:e5:dc:2d:54:cc:3d:cd:12:95:e5:d1:f4:91:
                    33:5b:78:5a:45:d7:0e:4f:9f:90:69:1c:b8:61:2c:
                    5c:30:64:e1:56:c6:22:a9:34:fd:31:d1:c4:ab:8e:
                    62:84:36:da:09:87:05:c6:9c:cd:79:55:5e:a5:a8:
                    9b:c0:46:b9:66:0a:50:c9:9e:2b:6d:d4:c5:cf:12:
                    80:f1:31:86:d0:15:d0:78:fa:6f:46:a2:b3:08:69:
                    80:1a:08:f9:d4:3b:c4:f7:4d:79:0e:d6:7d:6c:b3:
                    b8:24:07:c3:8c:ea:66:0d:b6:93:f5:66:43:59:5f:
                    13:2b:13:a5:49:83:9b:48:01:f3:67:c1:6c:f8:01:
                    94:59:0d:a0:24:d5:32:f2:c8:ca:2c:a1:f6:b0:cb:
                    0e:46:ff:5f:59:d8:02:63:92:6e:1b:12:bb:0b:e7:
                    1b:a9:b1:02:7b:17:d3:bd:15:22:c6:e4:f5:9a:39:
                    33:59:9f
                Exponent: 65537 (0x10001)
        X509v3 extensions:
            X509v3 Key Usage: critical
                Digital Signature, Key Encipherment
            X509v3 Extended Key Usage: 
                TLS Web Server Authentication, TLS Web Client Authentication
            X509v3 Subject Alternative Name: critical
                DNS:localhost, DNS:validator03.ash.local, IP Address:192.168.60.13
            X509v3 Subject Key Identifier: 
                E1:C3:AD:C3:81:92:37:FC:DF:58:2A:52:D7:A5:2B:0C:A6:50:F6:94
            X509v3 Authority Key Identifier: 
                E7:EC:D7:3D:54:22:89:79:71:87:DA:45:E7:7F:5C:9D:4D:3F:A6:12
    Signature Algorithm: sha256WithRSAEncryption
    Signature Value:
        b8:9f:d9:23:6b:30:90:1e:a1:b0:fe:b7:b8:fe:1b:b6:c7:8d:
        90:ca:2f:19:d7:18:94:b3:83:b0:87:1c:70:a8:75:ad:7a:43:
        d1:c0:55:f8:0d:19:7f:38:b6:95:41:29:4e:85:10:00:e4:35:
        ad:f8:b0:fb:e0:f9:62:fc:90:e8:54:2e:b2:c4:56:b8:ee:ba:
        ea:3d:85:f9:ff:cc:e3:88:41:10:c7:17:54:97:d2:61:a2:97:
        91:32:cf:be:d4:88:e1:5c:a9:63:61:cd:ec:95:52:68:cc:ca:
        12:2b:20:fa:b2:94:ab:fb:05:05:f1:45:e6:6d:43:52:2a:0a:
        64:f6:61:88:8d:f5:da:85:93:80:3f:ac:29:c7:94:45:fe:d6:
        c5:79:d7:47:db:a2:44:d5:49:98:a9:ef:29:f3:d2:d0:33:1b:
        dd:9f:48:d4:7d:3f:10:28:d5:70:a4:16:68:4f:55:cc:3c:23:
        16:29:a7:b3:d5:4a:6f:84:65:85:d4:af:92:7c:b6:2b:55:70:
        46:68:32:03:7a:93:a6:c2:16:02:dc:4d:b4:45:e8:04:1d:9b:
        08:e8:cb:6a:f6:3f:a4:8d:52:4d:80:1b:44:1e:38:70:47:7e:
        50:a1:5c:e4:31:a7:29:f6:c6:30:a7:93:9d:62:1d:cc:b7:48:
        ce:b3:5a:10:15:87:86:c8:22:ad:34:1d:58:ed:3a:a8:63:65:
        4f:f2:d0:67:29:11:da:db:9d:13:cf:63:49:75:28:57:79:a2:
        75:ba:8f:45:ca:08:0e:ac:f6:8b:14:ed:63:e2:f0:b4:df:12:
        ac:7c:8e:88:ca:7a:b1:d2:0e:b7:91:8b:03:06:4e:d6:75:a4:
        46:42:df:ea:36:a8:d2:a5:f0:d4:99:96:46:4e:4f:76:1d:51:
        2b:fc:07:61:df:28:19:34:dd:d2:4e:79:38:fe:83:69:8f:4e:
        af:3e:b5:74:e2:31:cd:65:6e:29:fb:a1:50:64:fb:23:95:9b:
        df:af:09:34:cb:d6:b3:03:82:13:b1:70:e0:30:b9:f1:fe:8d:
        2d:4e:4a:9d:b1:21:b2:b0:3c:1e:c8:a7:19:11:e2:d2:49:10:
        62:c6:a4:a0:d1:a9:ef:ea:17:02:ac:36:ec:c0:01:25:e8:f6:
        f3:b8:7f:45:52:7c:68:7b:bd:dd:06:66:3a:76:dd:20:96:08:
        fc:31:04:b8:41:bf:ce:8a:76:01:a1:c5:70:9d:04:d2:97:df:
        61:3a:d3:0c:63:1b:c5:e9:57:1a:22:e5:6e:7d:2b:73:b5:2f:
        9a:79:6e:eb:f3:b4:c5:3c:0f:a8:11:95:36:c1:38:32:a5:fd:
        be:f4:e2:71:38:64:b7:97
-----BEGIN CERTIFICATE-----
MIIFvjCCA6agAwIBAgIBCDANBgkqhkiG9w0BAQsFADBmMQswCQYDVQQGEwJGUjEW
MBQGA1UECAwNSWxlLWRlLUZyYW5jZTEOMAwGA1UEBwwFUGFyaXMxEjAQBgNVBAoM
CUUzNiBLbm90czEbMBkGA1UEAwwSQXNoIFNlbGYtc2lnbmVkIENBMB4XDTIzMDMy
MTE5MzM1NVoXDTMzMDMxODE5MzM1NVowNDESMBAGA1UECgwJRTM2IEtub3RzMR4w
HAYDVQQDDBV2YWxpZGF0b3IwMy5hc2gubG9jYWwwggIiMA0GCSqGSIb3DQEBAQUA
A4ICDwAwggIKAoICAQC2j62N7OwENxP001WGbSx3ym5lE5MnkGpkWQPVzIjtq6JA
/TInBvuuvzHN2o9w6FGFZXUcRfV/5B1l36sKAL52wgZnOZdBVU/Jua9A2bmpOcsy
1Yad2oR8ICpJvNl9Pb1kdXRec0dE9zBn3tsDRYLfNLFHznTE64OS226kA/UP8Lpk
xH5s3p1IdiPmtIzl74yvImAiKFvn0MxS4e0TawBWMvUD0FhUSW1UFMsHlZfUljx0
PbDdR9CqkXcYRwbjCCiEuzDMriy54c4odC2pxZynXGuP9EPGStg4FYj+thrs/uO4
ugbTQGU95+TphQVfObOzXyxiR8av6oTwQ1PDUcGSdQ/s9WE24SWcWQp518gcoah9
vrYkZ3FREMWmcq6YgJt993fZz/yvWGwXDnGb301DsDJXfd5ULMlFGhOZckMIy2w0
GrsZlEIe9UPl5dwtVMw9zRKV5dH0kTNbeFpF1w5Pn5BpHLhhLFwwZOFWxiKpNP0x
0cSrjmKENtoJhwXGnM15VV6lqJvARrlmClDJnitt1MXPEoDxMYbQFdB4+m9GorMI
aYAaCPnUO8T3TXkO1n1ss7gkB8OM6mYNtpP1ZkNZXxMrE6VJg5tIAfNnwWz4AZRZ
DaAk1TLyyMosofawyw5G/19Z2AJjkm4bErsL5xupsQJ7F9O9FSLG5PWaOTNZnwID
AQABo4GoMIGlMA4GA1UdDwEB/wQEAwIFoDAdBgNVHSUEFjAUBggrBgEFBQcDAQYI
KwYBBQUHAwIwNAYDVR0RAQH/BCowKIIJbG9jYWxob3N0ghV2YWxpZGF0b3IwMy5h
c2gubG9jYWyHBMCoPA0wHQYDVR0OBBYEFOHDrcOBkjf831gqUtelKwymUPaUMB8G
A1UdIwQYMBaAFOfs1z1UIol5cYfaRed/XJ1NP6YSMA0GCSqGSIb3DQEBCwUAA4IC
AQC4n9kjazCQHqGw/re4/hu2x42Qyi8Z1xiUs4OwhxxwqHWtekPRwFX4DRl/OLaV
QSlOhRAA5DWt+LD74Pli/JDoVC6yxFa47rrqPYX5/8zjiEEQxxdUl9JhopeRMs++
1IjhXKljYc3slVJozMoSKyD6spSr+wUF8UXmbUNSKgpk9mGIjfXahZOAP6wpx5RF
/tbFeddH26JE1UmYqe8p89LQMxvdn0jUfT8QKNVwpBZoT1XMPCMWKaez1UpvhGWF
1K+SfLYrVXBGaDIDepOmwhYC3E20RegEHZsI6Mtq9j+kjVJNgBtEHjhwR35QoVzk
Macp9sYwp5OdYh3Mt0jOs1oQFYeGyCKtNB1Y7TqoY2VP8tBnKRHa250Tz2NJdShX
eaJ1uo9FyggOrPaLFO1j4vC03xKsfI6Iynqx0g63kYsDBk7WdaRGQt/qNqjSpfDU
mZZGTk92HVEr/Adh3ygZNN3STnk4/oNpj06vPrV04jHNZW4p+6FQZPsjlZvfrwk0
y9azA4ITsXDgMLnx/o0tTkqdsSGysDweyKcZEeLSSRBixqSg0anv6hcCrDbswAEl
6PbzuH9FUnxoe73dBmY6dt0glgj8MQS4Qb/OinYBocVwnQTSl99hOtMMYxvF6Vca
IuVufStztS+aeW7r87TFPA+oEZU2wTgypf2+9OJxOGS3lw==
-----END CERTIFICATE-----
